; Function Attrs: mustprogress nofree norecurse nosync nounwind sspstrong willreturn memory(read, inaccessiblemem: none) uwtable
define internal range(i64 0, 21) i64 @nurat_positive_p(i64 noundef %0) #9 {
  %2 = inttoptr i64 %0 to ptr
  %3 = getelementptr inbounds nuw i8, ptr %2, i64 16
  %4 = load i64, ptr %3, align 8, !tbaa !19
  %5 = and i64 %4, 1
  %.not.i = icmp eq i64 %5, 0
  br i1 %.not.i, label %8, label %6

6:                                                ; preds = %1
  %7 = icmp sgt i64 %4, 1
  br label %INT_POSITIVE_P.exit

8:                                                ; preds = %1
  %9 = inttoptr i64 %4 to ptr
  %10 = load i64, ptr %9, align 8, !tbaa !7
  %11 = and i64 %10, 8192
  %12 = icmp ne i64 %11, 0
  br label %INT_POSITIVE_P.exit

INT_POSITIVE_P.exit:                              ; preds = %6, %8
  %.0.i = phi i1 [ %7, %6 ], [ %12, %8 ]
  %13 = select i1 %.0.i, i64 20, i64 0
  ret i64 %13
}